target datalayout = "e-m:e-p270:32:32-p271:32:32-p272:64:64-i64:64-i128:128-f80:128-n8:16:32:64-S128"
target triple = "x86_64-pc-linux-gnu"

%"struct.std::array" = type { [16 x i8] }
%"union.std::aligned_storage<8, 8>::type" = type { [8 x i8] }

@_ZTIN5folly24IPAddressFormatExceptionE = linkonce_odr constant { ptr, ptr, ptr } { ptr getelementptr inbounds (ptr, ptr @_ZTVN10__cxxabiv120__si_class_type_infoE, i64 2), ptr @_ZTSN5folly24IPAddressFormatExceptionE, ptr @_ZTISt13runtime_error }, comdat, align 8
@.str.56 = private unnamed_addr constant [29 x i8] c"IPv6 addresses are 128 bits.\00", align 1

; Function Attrs: inlinehint mustprogress nounwind uwtable
define internal noundef i64 @_ZN5folly6detailL12byteswap_genEm(i64 noundef %0) #8 {
  %2 = alloca i64, align 8
  store i64 %0, ptr %2, align 8, !tbaa !12
  %3 = load i64, ptr %2, align 8, !tbaa !12
  %4 = call i64 @llvm.bswap.i64(i64 %3)
  ret i64 %4
}

; Function Attrs: mustprogress nounwind uwtable
define linkonce_odr noundef i64 @_ZN5folly8bit_castImmTnNSt9enable_ifIXaaaaeqstT0_stT_sr3std21is_trivially_copyableIS3_EE5valuesr3std21is_trivially_copyableIS2_EE5valueEiE4typeELi0EEES3_RKS2_(ptr noundef nonnull align 8 dereferenceable(8) %0) #3 comdat {
  %2 = alloca ptr, align 8
  %3 = alloca %"union.std::aligned_storage<8, 8>::type", align 8
  store ptr %0, ptr %2, align 8, !tbaa !52
  call void @llvm.lifetime.start.p0(i64 8, ptr %3) #13
  %4 = load ptr, ptr %2, align 8, !tbaa !52
  call void @llvm.memcpy.p0.p0.i64(ptr align 8 %3, ptr align 8 %4, i64 8, i1 false)
  %5 = load i64, ptr %3, align 8, !tbaa !12
  call void @llvm.lifetime.end.p0(i64 8, ptr %3) #13
  ret i64 %5
}

; Function Attrs: mustprogress uwtable
define linkonce_odr noundef i64 @_ZN5folly6detail9EndianIntImE4swapEm(i64 noundef %0) #0 comdat align 2 {
  %2 = alloca i64, align 8
  %3 = alloca i64, align 8
  %4 = alloca i64, align 8
  store i64 %0, ptr %2, align 8, !tbaa !12
  call void @llvm.lifetime.start.p0(i64 8, ptr %3) #13
  store i64 8, ptr %3, align 8, !tbaa !12
  call void @llvm.lifetime.start.p0(i64 8, ptr %4) #13
  %5 = call noundef i64 @_ZN5folly8bit_castImmTnNSt9enable_ifIXaaaaeqstT0_stT_sr3std21is_trivially_copyableIS3_EE5valuesr3std21is_trivially_copyableIS2_EE5valueEiE4typeELi0EEES3_RKS2_(ptr noundef nonnull align 8 dereferenceable(8) %2) #13
  %6 = call noundef i64 @_ZN5folly6detailL12byteswap_genEm(i64 noundef %5)
  store i64 %6, ptr %4, align 8, !tbaa !12
  %7 = call noundef i64 @_ZN5folly8bit_castImmTnNSt9enable_ifIXaaaaeqstT0_stT_sr3std21is_trivially_copyableIS3_EE5valuesr3std21is_trivially_copyableIS2_EE5valueEiE4typeELi0EEES3_RKS2_(ptr noundef nonnull align 8 dereferenceable(8) %4) #13
  call void @llvm.lifetime.end.p0(i64 8, ptr %4) #13
  call void @llvm.lifetime.end.p0(i64 8, ptr %3) #13
  ret i64 %7
}

; Function Attrs: mustprogress nounwind uwtable
define linkonce_odr noundef ptr @_ZNSt14__array_traitsIhLm16EE6_S_ptrERA16_Kh(ptr noundef nonnull align 1 dereferenceable(16) %0) #3 comdat align 2 {
  %2 = alloca ptr, align 8
  store ptr %0, ptr %2, align 8, !tbaa !28
  %3 = load ptr, ptr %2, align 8, !tbaa !28
  %4 = getelementptr inbounds [16 x i8], ptr %3, i64 0, i64 0
  ret ptr %4
}

; Function Attrs: mustprogress uwtable
define linkonce_odr noundef i64 @_ZN5folly6detail9EndianIntImE3bigEm(i64 noundef %0) #0 comdat align 2 {
  %2 = alloca i64, align 8
  store i64 %0, ptr %2, align 8, !tbaa !12
  %3 = load i64, ptr %2, align 8, !tbaa !12
  %4 = call noundef i64 @_ZN5folly6detail9EndianIntImE4swapEm(i64 noundef %3)
  ret i64 %4
}

; Function Attrs: mustprogress nounwind willreturn memory(none) uwtable
define linkonce_odr noundef ptr @_ZNSt5arrayIhLm16EE4dataEv(ptr noundef nonnull align 1 dereferenceable(16) %0) #25 comdat align 2 {
  %2 = alloca ptr, align 8
  store ptr %0, ptr %2, align 8, !tbaa !157
  %3 = load ptr, ptr %2, align 8
  %4 = getelementptr inbounds nuw %"struct.std::array", ptr %3, i32 0, i32 0
  %5 = call noundef ptr @_ZNSt14__array_traitsIhLm16EE6_S_ptrERA16_Kh(ptr noundef nonnull align 1 dereferenceable(16) %4) #13
  ret ptr %5
}

; Function Attrs: mustprogress uwtable
define linkonce_odr noundef i64 @_ZN5folly6Endian3bigImEET_S2_(i64 noundef %0) #0 comdat align 2 {
  %2 = alloca i64, align 8
  store i64 %0, ptr %2, align 8, !tbaa !12
  %3 = load i64, ptr %2, align 8, !tbaa !12
  %4 = call noundef i64 @_ZN5folly6detail9EndianIntImE3bigEm(i64 noundef %3)
  ret i64 %4
}

; Function Attrs: mustprogress uwtable
define { i64, i64 } @_ZN5folly11IPAddressV69fetchMaskEm(i64 noundef %0) #0 align 2 personality ptr @__gxx_personality_v0 {
  %2 = alloca %"struct.std::array", align 1
  %3 = alloca i64, align 8
  %4 = alloca ptr, align 8
  %5 = alloca i32, align 4
  %6 = alloca i64, align 8
  %7 = alloca i64, align 8
  %8 = alloca i64, align 8
  %9 = alloca i64, align 8
  %10 = alloca i64, align 8
  %11 = alloca [2 x i64], align 16
  store i64 %0, ptr %3, align 8, !tbaa !12
  %12 = load i64, ptr %3, align 8, !tbaa !12
  %13 = icmp ugt i64 %12, 128
  br i1 %13, label %14, label %21

14:                                               ; preds = %1
  %15 = call ptr @__cxa_allocate_exception(i64 16) #13
  invoke void @_ZN5folly24IPAddressFormatExceptionCI2St13runtime_errorEPKc(ptr noundef nonnull align 8 dereferenceable(16) %15, ptr noundef @.str.56)
          to label %16 unwind label %17

16:                                               ; preds = %14
  call void @__cxa_throw(ptr %15, ptr @_ZTIN5folly24IPAddressFormatExceptionE, ptr @_ZNSt13runtime_errorD2Ev) #32
  unreachable

17:                                               ; preds = %14
  %18 = landingpad { ptr, i32 }
          cleanup
  %19 = extractvalue { ptr, i32 } %18, 0
  store ptr %19, ptr %4, align 8
  %20 = extractvalue { ptr, i32 } %18, 1
  store i32 %20, ptr %5, align 4
  call void @__cxa_free_exception(ptr %15) #13
  br label %61

21:                                               ; preds = %1
  %22 = load i64, ptr %3, align 8, !tbaa !12
  %23 = icmp eq i64 %22, 0
  br i1 %23, label %24, label %33

24:                                               ; preds = %21
  %25 = getelementptr inbounds nuw %"struct.std::array", ptr %2, i32 0, i32 0
  store i8 0, ptr %25, align 1, !tbaa !22
  %26 = getelementptr inbounds i8, ptr %25, i64 1
  %27 = getelementptr inbounds i8, ptr %25, i64 16
  br label %28

28:                                               ; preds = %28, %24
  %29 = phi ptr [ %26, %24 ], [ %30, %28 ]
  store i8 0, ptr %29, align 1, !tbaa !22
  %30 = getelementptr inbounds i8, ptr %29, i64 1
  %31 = icmp eq ptr %30, %27
  br i1 %31, label %32, label %28

32:                                               ; preds = %28
  br label %58

33:                                               ; preds = %21
  call void @llvm.lifetime.start.p0(i64 8, ptr %6) #13
  store i64 0, ptr %6, align 8, !tbaa !12
  call void @llvm.lifetime.start.p0(i64 8, ptr %7) #13
  store i64 -1, ptr %7, align 8, !tbaa !12
  call void @llvm.lifetime.start.p0(i64 8, ptr %8) #13
  %34 = load i64, ptr %3, align 8, !tbaa !12
  %35 = sub i64 128, %34
  %36 = urem i64 %35, 64
  %37 = shl i64 -1, %36
  %38 = call noundef i64 @_ZN5folly6Endian3bigImEET_S2_(i64 noundef %37)
  store i64 %38, ptr %8, align 8, !tbaa !12
  call void @llvm.lifetime.start.p0(i64 8, ptr %9) #13
  %39 = load i64, ptr %3, align 8, !tbaa !12
  %40 = icmp ule i64 %39, 64
  br i1 %40, label %41, label %43

41:                                               ; preds = %33
  %42 = load i64, ptr %8, align 8, !tbaa !12
  br label %44

43:                                               ; preds = %33
  br label %44

44:                                               ; preds = %43, %41
  %45 = phi i64 [ %42, %41 ], [ -1, %43 ]
  store i64 %45, ptr %9, align 8, !tbaa !12
  call void @llvm.lifetime.start.p0(i64 8, ptr %10) #13
  %46 = load i64, ptr %3, align 8, !tbaa !12
  %47 = icmp ule i64 %46, 64
  br i1 %47, label %48, label %49

48:                                               ; preds = %44
  br label %51

49:                                               ; preds = %44
  %50 = load i64, ptr %8, align 8, !tbaa !12
  br label %51

51:                                               ; preds = %49, %48
  %52 = phi i64 [ 0, %48 ], [ %50, %49 ]
  store i64 %52, ptr %10, align 8, !tbaa !12
  call void @llvm.lifetime.start.p0(i64 16, ptr %11) #13
  %53 = load i64, ptr %9, align 8, !tbaa !12
  store i64 %53, ptr %11, align 8, !tbaa !12
  %54 = getelementptr inbounds i64, ptr %11, i64 1
  %55 = load i64, ptr %10, align 8, !tbaa !12
  store i64 %55, ptr %54, align 8, !tbaa !12
  %56 = call noundef ptr @_ZNSt5arrayIhLm16EE4dataEv(ptr noundef nonnull align 1 dereferenceable(16) %2) #31
  %57 = getelementptr inbounds [2 x i64], ptr %11, i64 0, i64 0
  call void @llvm.memcpy.p0.p0.i64(ptr align 1 %56, ptr align 16 %57, i64 16, i1 false)
  call void @llvm.lifetime.end.p0(i64 16, ptr %11) #13
  call void @llvm.lifetime.end.p0(i64 8, ptr %10) #13
  call void @llvm.lifetime.end.p0(i64 8, ptr %9) #13
  call void @llvm.lifetime.end.p0(i64 8, ptr %8) #13
  call void @llvm.lifetime.end.p0(i64 8, ptr %7) #13
  call void @llvm.lifetime.end.p0(i64 8, ptr %6) #13
  br label %58

58:                                               ; preds = %51, %32
  %59 = getelementptr inbounds nuw %"struct.std::array", ptr %2, i32 0, i32 0
  %60 = load { i64, i64 }, ptr %59, align 1
  ret { i64, i64 } %60

61:                                               ; preds = %17
  %62 = load ptr, ptr %4, align 8
  %63 = load i32, ptr %5, align 4
  %64 = insertvalue { ptr, i32 } poison, ptr %62, 0
  %65 = insertvalue { ptr, i32 } %64, i32 %63, 1
  resume { ptr, i32 } %65
}