; Function Attrs: mustprogress uwtable
define { i64, i64 } @_ZN5folly11IPAddressV69fetchMaskEm(i64 noundef %0) local_unnamed_addr #0 align 2 personality ptr @__gxx_personality_v0 {
  %2 = icmp ugt i64 %0, 128
  br i1 %2, label %3, label %8

3:                                                ; preds = %1
  %4 = tail call ptr @__cxa_allocate_exception(i64 16) #37
  invoke void @_ZN5folly24IPAddressFormatExceptionCI2St13runtime_errorEPKc(ptr noundef nonnull align 8 dereferenceable(16) %4, ptr noundef nonnull @.str.56)
          to label %5 unwind label %6

5:                                                ; preds = %3
  tail call void @__cxa_throw(ptr nonnull %4, ptr nonnull @_ZTIN5folly24IPAddressFormatExceptionE, ptr nonnull @_ZNSt13runtime_errorD2Ev) #40
  unreachable

6:                                                ; preds = %3
  %7 = landingpad { ptr, i32 }
          cleanup
  tail call void @__cxa_free_exception(ptr nonnull %4) #37
  resume { ptr, i32 } %7

8:                                                ; preds = %1
  %9 = icmp eq i64 %0, 0
  br i1 %9, label %.loopexit, label %10

10:                                               ; preds = %8
  %11 = sub nsw i64 0, %0
  %12 = and i64 %11, 63
  %13 = shl nsw i64 -1, %12
  %14 = tail call noundef i64 @llvm.bswap.i64(i64 %13)
  %15 = icmp samesign ult i64 %0, 65
  %16 = select i1 %15, i64 %14, i64 -1
  %17 = select i1 %15, i64 0, i64 %14
  br label %.loopexit

.loopexit:                                        ; preds = %8, %10
  %.sroa.4.0 = phi i64 [ %17, %10 ], [ 0, %8 ]
  %.sroa.0.sroa.0.0.insert.insert = phi i64 [ %16, %10 ], [ 0, %8 ]
  %.fca.0.insert = insertvalue { i64, i64 } poison, i64 %.sroa.0.sroa.0.0.insert.insert, 0
  %.fca.1.insert = insertvalue { i64, i64 } %.fca.0.insert, i64 %.sroa.4.0, 1
  ret { i64, i64 } %.fca.1.insert
}